target datalayout = "e-m:e-p270:32:32-p271:32:32-p272:64:64-i64:64-i128:128-f80:128-n8:16:32:64-S128"
target triple = "x86_64-pc-linux-gnu"

%struct.ident_t = type { i32, i32, i32, i32, ptr }
%"class.gmx::Propagator" = type { %"class.gmx::ISimulatorElement", float, ptr, i8, i8, i8, i8, i8, i8, %"class.std::vector", %"class.std::vector", %"class.std::vector", i64, i64, %"class.gmx::MultiDimArray", i64, ptr, ptr }
%"class.gmx::ISimulatorElement" = type { ptr }
%"class.std::vector" = type { %"struct.std::_Vector_base" }
%"struct.std::_Vector_base" = type { %"struct.std::_Vector_base<float, std::allocator<float>>::_Vector_impl" }
%"struct.std::_Vector_base<float, std::allocator<float>>::_Vector_impl" = type { %"struct.std::_Vector_base<float, std::allocator<float>>::_Vector_impl_data" }
%"struct.std::_Vector_base<float, std::allocator<float>>::_Vector_impl_data" = type { ptr, ptr, ptr }
%"class.gmx::MultiDimArray" = type { %"struct.std::array", %"class.gmx::basic_mdspan" }
%"struct.std::array" = type { [9 x float] }
%"class.gmx::basic_mdspan" = type { %"class.gmx::accessor_basic", %"class.gmx::layout_right::mapping", ptr }
%"class.gmx::accessor_basic" = type { i8 }
%"class.gmx::layout_right::mapping" = type { %"class.gmx::extents" }
%"class.gmx::extents" = type { %"struct.gmx::detail::extents_analyse" }
%"struct.gmx::detail::extents_analyse" = type { %"struct.gmx::detail::extents_analyse.0" }
%"struct.gmx::detail::extents_analyse.0" = type { %"struct.gmx::detail::extents_analyse.1" }
%"struct.gmx::detail::extents_analyse.1" = type { i8 }

@1 = private unnamed_addr constant %struct.ident_t { i32 0, i32 514, i32 0, i32 22, ptr @0 }, align 8
@_ZTISt9exception = external constant ptr

; Function Attrs: mustprogress nounwind uwtable
define internal void @_ZN3gmxL15updatePositionsEifPA3_KfPA3_fS2_(i32 noundef %0, float noundef %1, ptr noalias noundef %2, ptr noalias noundef %3, ptr noalias noundef %4) #1 {
  %6 = alloca i32, align 4
  %7 = alloca float, align 4
  %8 = alloca ptr, align 8
  %9 = alloca ptr, align 8
  %10 = alloca ptr, align 8
  %11 = alloca i32, align 4
  store i32 %0, ptr %6, align 4
  store float %1, ptr %7, align 4
  store ptr %2, ptr %8, align 8
  store ptr %3, ptr %9, align 8
  store ptr %4, ptr %10, align 8
  store i32 0, ptr %11, align 4
  br label %12

12:                                               ; preds = %41, %5
  %13 = load i32, ptr %11, align 4
  %14 = icmp slt i32 %13, 3
  br i1 %14, label %15, label %44

15:                                               ; preds = %12
  %16 = load ptr, ptr %8, align 8
  %17 = load i32, ptr %6, align 4
  %18 = sext i32 %17 to i64
  %19 = getelementptr inbounds [3 x float], ptr %16, i64 %18
  %20 = load i32, ptr %11, align 4
  %21 = sext i32 %20 to i64
  %22 = getelementptr inbounds [3 x float], ptr %19, i64 0, i64 %21
  %23 = load float, ptr %22, align 4
  %24 = load ptr, ptr %10, align 8
  %25 = load i32, ptr %6, align 4
  %26 = sext i32 %25 to i64
  %27 = getelementptr inbounds [3 x float], ptr %24, i64 %26
  %28 = load i32, ptr %11, align 4
  %29 = sext i32 %28 to i64
  %30 = getelementptr inbounds [3 x float], ptr %27, i64 0, i64 %29
  %31 = load float, ptr %30, align 4
  %32 = load float, ptr %7, align 4
  %33 = call float @llvm.fmuladd.f32(float %31, float %32, float %23)
  %34 = load ptr, ptr %9, align 8
  %35 = load i32, ptr %6, align 4
  %36 = sext i32 %35 to i64
  %37 = getelementptr inbounds [3 x float], ptr %34, i64 %36
  %38 = load i32, ptr %11, align 4
  %39 = sext i32 %38 to i64
  %40 = getelementptr inbounds [3 x float], ptr %37, i64 0, i64 %39
  store float %33, ptr %40, align 4
  br label %41

41:                                               ; preds = %15
  %42 = load i32, ptr %11, align 4
  %43 = add nsw i32 %42, 1
  store i32 %43, ptr %11, align 4
  br label %12, !llvm.loop !7

44:                                               ; preds = %12
  ret void
}

; Function Attrs: norecurse nounwind uwtable
define internal void @_ZN3gmx10PropagatorILNS_16IntegrationStageE0EE3runILNS_24NumVelocityScalingValuesE2ELNS_31ParrinelloRahmanVelocityScalingE0ELS4_0ELNS_24NumPositionScalingValuesE0EEEvv.omp_outlined(ptr noalias noundef %0, ptr noalias noundef %1, ptr noundef nonnull align 4 dereferenceable(4) %2, ptr noundef nonnull align 4 dereferenceable(4) %3, ptr noundef %4, ptr noundef nonnull align 8 dereferenceable(8) %5, ptr noundef nonnull align 8 dereferenceable(8) %6, ptr noundef nonnull align 8 dereferenceable(8) %7) #9 personality ptr @__gxx_personality_v0 {
  %9 = alloca ptr, align 8
  %10 = alloca ptr, align 8
  %11 = alloca ptr, align 8
  %12 = alloca ptr, align 8
  %13 = alloca ptr, align 8
  %14 = alloca ptr, align 8
  %15 = alloca ptr, align 8
  %16 = alloca ptr, align 8
  %17 = alloca i32, align 4
  %18 = alloca i32, align 4
  %19 = alloca i32, align 4
  %20 = alloca i32, align 4
  %21 = alloca i32, align 4
  %22 = alloca i32, align 4
  %23 = alloca i32, align 4
  %24 = alloca i32, align 4
  %25 = alloca i32, align 4
  %26 = alloca i32, align 4
  %27 = alloca i32, align 4
  %28 = alloca ptr, align 8
  %29 = alloca i32, align 4
  %30 = alloca i32, align 4
  %31 = alloca ptr, align 8
  store ptr %0, ptr %9, align 8
  store ptr %1, ptr %10, align 8
  store ptr %2, ptr %11, align 8
  store ptr %3, ptr %12, align 8
  store ptr %4, ptr %13, align 8
  store ptr %5, ptr %14, align 8
  store ptr %6, ptr %15, align 8
  store ptr %7, ptr %16, align 8
  %32 = load ptr, ptr %11, align 8
  %33 = load ptr, ptr %12, align 8
  %34 = load ptr, ptr %13, align 8
  %35 = load ptr, ptr %14, align 8
  %36 = load ptr, ptr %15, align 8
  %37 = load ptr, ptr %16, align 8
  %38 = load i32, ptr %32, align 4
  store i32 %38, ptr %18, align 4
  %39 = load i32, ptr %18, align 4
  %40 = sub nsw i32 %39, 0
  %41 = sdiv i32 %40, 1
  %42 = sub nsw i32 %41, 1
  store i32 %42, ptr %19, align 4
  store i32 0, ptr %20, align 4
  %43 = load i32, ptr %18, align 4
  %44 = icmp slt i32 0, %43
  br i1 %44, label %45, label %109

45:                                               ; preds = %8
  store i32 0, ptr %21, align 4
  %46 = load i32, ptr %19, align 4
  store i32 %46, ptr %22, align 4
  store i32 1, ptr %23, align 4
  store i32 0, ptr %24, align 4
  %47 = load ptr, ptr %9, align 8
  %48 = load i32, ptr %47, align 4
  call void @__kmpc_for_static_init_4(ptr @1, i32 %48, i32 34, ptr %24, ptr %21, ptr %22, ptr %23, i32 1, i32 1)
  %49 = load i32, ptr %22, align 4
  %50 = load i32, ptr %19, align 4
  %51 = icmp sgt i32 %49, %50
  br i1 %51, label %52, label %54

52:                                               ; preds = %45
  %53 = load i32, ptr %19, align 4
  br label %56

54:                                               ; preds = %45
  %55 = load i32, ptr %22, align 4
  br label %56

56:                                               ; preds = %54, %52
  %57 = phi i32 [ %53, %52 ], [ %55, %54 ]
  store i32 %57, ptr %22, align 4
  %58 = load i32, ptr %21, align 4
  store i32 %58, ptr %17, align 4
  br label %59

59:                                               ; preds = %102, %56
  %60 = load i32, ptr %17, align 4
  %61 = load i32, ptr %22, align 4
  %62 = icmp sle i32 %60, %61
  br i1 %62, label %63, label %105

63:                                               ; preds = %59
  %64 = load i32, ptr %17, align 4
  %65 = mul nsw i32 %64, 1
  %66 = add nsw i32 0, %65
  store i32 %66, ptr %25, align 4
  %67 = load i32, ptr %32, align 4
  %68 = load i32, ptr %25, align 4
  %69 = load i32, ptr %33, align 4
  invoke void @_Z18getThreadAtomRangeiiiPiS_(i32 noundef %67, i32 noundef %68, i32 noundef %69, ptr noundef %26, ptr noundef %27)
          to label %70 unwind label %86

70:                                               ; preds = %63
  %71 = load i32, ptr %26, align 4
  store i32 %71, ptr %30, align 4
  br label %72

72:                                               ; preds = %83, %70
  %73 = load i32, ptr %30, align 4
  %74 = load i32, ptr %27, align 4
  %75 = icmp slt i32 %73, %74
  br i1 %75, label %76, label %99

76:                                               ; preds = %72
  %77 = load i32, ptr %30, align 4
  %78 = getelementptr inbounds %"class.gmx::Propagator", ptr %34, i32 0, i32 1
  %79 = load float, ptr %78, align 8
  %80 = load ptr, ptr %35, align 8
  %81 = load ptr, ptr %36, align 8
  %82 = load ptr, ptr %37, align 8
  call void @_ZN3gmxL15updatePositionsEifPA3_KfPA3_fS2_(i32 noundef %77, float noundef %79, ptr noundef %80, ptr noundef %81, ptr noundef %82)
  br label %83

83:                                               ; preds = %76
  %84 = load i32, ptr %30, align 4
  %85 = add nsw i32 %84, 1
  store i32 %85, ptr %30, align 4
  br label %72, !llvm.loop !17

86:                                               ; preds = %63
  %87 = landingpad { ptr, i32 }
          catch ptr @_ZTISt9exception
          catch ptr null
  %88 = extractvalue { ptr, i32 } %87, 0
  store ptr %88, ptr %28, align 8
  %89 = extractvalue { ptr, i32 } %87, 1
  store i32 %89, ptr %29, align 4
  br label %90

90:                                               ; preds = %86
  %91 = load i32, ptr %29, align 4
  %92 = call i32 @llvm.eh.typeid.for(ptr @_ZTISt9exception) #10
  %93 = icmp eq i32 %91, %92
  br i1 %93, label %94, label %113

94:                                               ; preds = %90
  %95 = load ptr, ptr %28, align 8
  %96 = call ptr @__cxa_begin_catch(ptr %95) #10
  store ptr %96, ptr %31, align 8
  %97 = load ptr, ptr %31, align 8
  invoke void @_ZN3gmx28processExceptionAsFatalErrorERKSt9exception(ptr noundef nonnull align 8 dereferenceable(8) %97) #20
          to label %98 unwind label %110

98:                                               ; preds = %94
  unreachable

99:                                               ; preds = %72
  br label %100

100:                                              ; preds = %99
  br label %101

101:                                              ; preds = %100
  br label %102

102:                                              ; preds = %101
  %103 = load i32, ptr %17, align 4
  %104 = add nsw i32 %103, 1
  store i32 %104, ptr %17, align 4
  br label %59

105:                                              ; preds = %59
  br label %106

106:                                              ; preds = %105
  %107 = load ptr, ptr %9, align 8
  %108 = load i32, ptr %107, align 4
  call void @__kmpc_for_static_fini(ptr @1, i32 %108)
  br label %109

109:                                              ; preds = %106, %8
  ret void

110:                                              ; preds = %94
  %111 = landingpad { ptr, i32 }
          catch ptr null
  %112 = extractvalue { ptr, i32 } %111, 0
  call void @__clang_call_terminate(ptr %112) #19
  unreachable

113:                                              ; preds = %90
  %114 = load ptr, ptr %28, align 8
  call void @__clang_call_terminate(ptr %114) #19
  unreachable
}